target datalayout = "e-m:e-p270:32:32-p271:32:32-p272:64:64-i64:64-i128:128-f80:128-n8:16:32:64-S128"
target triple = "x86_64-pc-linux-gnu"

%struct.ZSTDv06_frameParams_s = type { i64, i32 }
%struct.ZBUFFv06_DCtx_s = type { ptr, %struct.ZSTDv06_frameParams_s, i32, ptr, i64, i64, ptr, i64, i64, i64, i64, [13 x i8], i64 }

; Function Attrs: nounwind uwtable
define i64 @ZSTDv06_freeDCtx(ptr noundef %0) #0 {
  %2 = alloca ptr, align 8
  store ptr %0, ptr %2, align 8, !tbaa !75
  %3 = load ptr, ptr %2, align 8, !tbaa !75
  call void @free(ptr noundef %3) #10
  ret i64 0
}

; Function Attrs: nounwind uwtable
define i64 @ZBUFFv06_freeDCtx(ptr noundef %0) #0 {
  %2 = alloca i64, align 8
  %3 = alloca ptr, align 8
  store ptr %0, ptr %3, align 8, !tbaa !99
  %4 = load ptr, ptr %3, align 8, !tbaa !99
  %5 = icmp eq ptr %4, null
  br i1 %5, label %6, label %7

6:                                                ; preds = %1
  store i64 0, ptr %2, align 8
  br label %19

7:                                                ; preds = %1
  %8 = load ptr, ptr %3, align 8, !tbaa !99
  %9 = getelementptr inbounds nuw %struct.ZBUFFv06_DCtx_s, ptr %8, i32 0, i32 0
  %10 = load ptr, ptr %9, align 8, !tbaa !101
  %11 = call i64 @ZSTDv06_freeDCtx(ptr noundef %10)
  %12 = load ptr, ptr %3, align 8, !tbaa !99
  %13 = getelementptr inbounds nuw %struct.ZBUFFv06_DCtx_s, ptr %12, i32 0, i32 3
  %14 = load ptr, ptr %13, align 8, !tbaa !104
  call void @free(ptr noundef %14) #10
  %15 = load ptr, ptr %3, align 8, !tbaa !99
  %16 = getelementptr inbounds nuw %struct.ZBUFFv06_DCtx_s, ptr %15, i32 0, i32 6
  %17 = load ptr, ptr %16, align 8, !tbaa !105
  call void @free(ptr noundef %17) #10
  %18 = load ptr, ptr %3, align 8, !tbaa !99
  call void @free(ptr noundef %18) #10
  store i64 0, ptr %2, align 8
  br label %19

19:                                               ; preds = %7, %6
  %20 = load i64, ptr %2, align 8
  ret i64 %20
}