; Function Attrs: mustprogress nounwind willreturn uwtable
define noundef i64 @ZBUFFv06_freeDCtx(ptr noundef captures(address_is_null) %0) local_unnamed_addr #21 {
  %2 = icmp eq ptr %0, null
  br i1 %2, label %9, label %3

3:                                                ; preds = %1
  %4 = load ptr, ptr %0, align 8, !tbaa !95
  tail call void @free(ptr noundef %4) #28
  %5 = getelementptr inbounds nuw i8, ptr %0, i64 32
  %6 = load ptr, ptr %5, align 8, !tbaa !99
  tail call void @free(ptr noundef %6) #28
  %7 = getelementptr inbounds nuw i8, ptr %0, i64 56
  %8 = load ptr, ptr %7, align 8, !tbaa !100
  tail call void @free(ptr noundef %8) #28
  tail call void @free(ptr noundef nonnull %0) #28
  br label %9

9:                                                ; preds = %1, %3
  ret i64 0
}